target datalayout = "e-m:e-p270:32:32-p271:32:32-p272:64:64-i64:64-i128:128-f80:128-n8:16:32:64-S128"
target triple = "x86_64-pc-linux-gnu"

%"union.pxrInternal_v0_24__pxrReserved__::pxr_half::half::uif" = type { i32 }
%"class.pxrInternal_v0_24__pxrReserved__::Vt_ArrayBase" = type { %"struct.pxrInternal_v0_24__pxrReserved__::Vt_ShapeData", ptr }
%"struct.pxrInternal_v0_24__pxrReserved__::Vt_ShapeData" = type { i64, [3 x i32] }
%"class.pxrInternal_v0_24__pxrReserved__::VtArray.94" = type { %"class.pxrInternal_v0_24__pxrReserved__::Vt_ArrayBase", ptr }
%"class.pxrInternal_v0_24__pxrReserved__::pxr_half::half" = type { i16 }
%"class.pxrInternal_v0_24__pxrReserved__::GfVec3h" = type { [3 x %"class.pxrInternal_v0_24__pxrReserved__::pxr_half::half"] }

@.str.71 = private unnamed_addr constant [6 x i8] c"half3\00", align 1
@_ZN32pxrInternal_v0_24__pxrReserved__8pxr_half4half5_eLutE = external constant [512 x i16], align 16

; Function Attrs: mustprogress nounwind uwtable
define linkonce_odr dso_local void @_ZN32pxrInternal_v0_24__pxrReserved__7GfVec3hC2ENS_8pxr_half4halfES2_S2_(ptr noundef nonnull align 2 dereferenceable(6) %0, i16 %1, i16 %2, i16 %3) unnamed_addr #5 comdat align 2 {
  %5 = alloca %"class.pxrInternal_v0_24__pxrReserved__::pxr_half::half", align 2
  %6 = alloca %"class.pxrInternal_v0_24__pxrReserved__::pxr_half::half", align 2
  %7 = alloca %"class.pxrInternal_v0_24__pxrReserved__::pxr_half::half", align 2
  %8 = alloca ptr, align 8
  %9 = getelementptr inbounds nuw %"class.pxrInternal_v0_24__pxrReserved__::pxr_half::half", ptr %5, i32 0, i32 0
  store i16 %1, ptr %9, align 2
  %10 = getelementptr inbounds nuw %"class.pxrInternal_v0_24__pxrReserved__::pxr_half::half", ptr %6, i32 0, i32 0
  store i16 %2, ptr %10, align 2
  %11 = getelementptr inbounds nuw %"class.pxrInternal_v0_24__pxrReserved__::pxr_half::half", ptr %7, i32 0, i32 0
  store i16 %3, ptr %11, align 2
  store ptr %0, ptr %8, align 8
  %12 = load ptr, ptr %8, align 8
  %13 = getelementptr inbounds nuw %"class.pxrInternal_v0_24__pxrReserved__::GfVec3h", ptr %12, i32 0, i32 0
  call void @llvm.memcpy.p0.p0.i64(ptr align 2 %13, ptr align 2 %5, i64 2, i1 false)
  %14 = getelementptr inbounds %"class.pxrInternal_v0_24__pxrReserved__::pxr_half::half", ptr %13, i64 1
  call void @llvm.memcpy.p0.p0.i64(ptr align 2 %14, ptr align 2 %6, i64 2, i1 false)
  %15 = getelementptr inbounds %"class.pxrInternal_v0_24__pxrReserved__::pxr_half::half", ptr %13, i64 2
  call void @llvm.memcpy.p0.p0.i64(ptr align 2 %15, ptr align 2 %7, i64 2, i1 false)
  ret void
}

; Function Attrs: mustprogress uwtable
define linkonce_odr dso_local void @_ZN32pxrInternal_v0_24__pxrReserved__8pxr_half4halfC2Ef(ptr noundef nonnull align 2 dereferenceable(2) %0, float noundef %1) unnamed_addr #4 comdat align 2 {
  %3 = alloca ptr, align 8
  %4 = alloca float, align 4
  %5 = alloca %"union.pxrInternal_v0_24__pxrReserved__::pxr_half::half::uif", align 4
  %6 = alloca i32, align 4
  %7 = alloca i32, align 4
  store ptr %0, ptr %3, align 8
  store float %1, ptr %4, align 4
  %8 = load ptr, ptr %3, align 8
  %9 = load float, ptr %4, align 4
  store float %9, ptr %5, align 4
  %10 = load float, ptr %4, align 4
  %11 = fcmp oeq float %10, 0.000000e+00
  br i1 %11, label %12, label %17

12:                                               ; preds = %2
  %13 = load i32, ptr %5, align 4
  %14 = lshr i32 %13, 16
  %15 = trunc i32 %14 to i16
  %16 = getelementptr inbounds nuw %"class.pxrInternal_v0_24__pxrReserved__::pxr_half::half", ptr %8, i32 0, i32 0
  store i16 %15, ptr %16, align 2
  br label %47

17:                                               ; preds = %2
  %18 = load i32, ptr %5, align 4
  %19 = lshr i32 %18, 23
  %20 = and i32 %19, 511
  store i32 %20, ptr %6, align 4
  %21 = load i32, ptr %6, align 4
  %22 = sext i32 %21 to i64
  %23 = getelementptr inbounds [512 x i16], ptr @_ZN32pxrInternal_v0_24__pxrReserved__8pxr_half4half5_eLutE, i64 0, i64 %22
  %24 = load i16, ptr %23, align 2
  %25 = zext i16 %24 to i32
  store i32 %25, ptr %6, align 4
  %26 = load i32, ptr %6, align 4
  %27 = icmp ne i32 %26, 0
  br i1 %27, label %28, label %42

28:                                               ; preds = %17
  %29 = load i32, ptr %5, align 4
  %30 = and i32 %29, 8388607
  store i32 %30, ptr %7, align 4
  %31 = load i32, ptr %6, align 4
  %32 = load i32, ptr %7, align 4
  %33 = add nsw i32 %32, 4095
  %34 = load i32, ptr %7, align 4
  %35 = ashr i32 %34, 13
  %36 = and i32 %35, 1
  %37 = add nsw i32 %33, %36
  %38 = ashr i32 %37, 13
  %39 = add nsw i32 %31, %38
  %40 = trunc i32 %39 to i16
  %41 = getelementptr inbounds nuw %"class.pxrInternal_v0_24__pxrReserved__::pxr_half::half", ptr %8, i32 0, i32 0
  store i16 %40, ptr %41, align 2
  br label %46

42:                                               ; preds = %17
  %43 = load i32, ptr %5, align 4
  %44 = call noundef signext i16 @_ZN32pxrInternal_v0_24__pxrReserved__8pxr_half4half7convertEi(i32 noundef %43)
  %45 = getelementptr inbounds nuw %"class.pxrInternal_v0_24__pxrReserved__::pxr_half::half", ptr %8, i32 0, i32 0
  store i16 %44, ptr %45, align 2
  br label %46

46:                                               ; preds = %42, %28
  br label %47

47:                                               ; preds = %46, %12
  ret void
}

; Function Attrs: mustprogress uwtable
define dso_local void @_Z7GetInfoIN32pxrInternal_v0_24__pxrReserved__7GfVec3hEEvPNS0_7VtArrayIT_EEPNSt7__cxx1112basic_stringIcSt11char_traitsIcESaIcEEE(ptr noundef %0, ptr noundef %1) #4 personality ptr @__gxx_personality_v0 {
  %3 = alloca ptr, align 8
  %4 = alloca ptr, align 8
  %5 = alloca %"class.pxrInternal_v0_24__pxrReserved__::VtArray.94", align 8
  %6 = alloca ptr, align 8
  %7 = alloca i32, align 4
  %8 = alloca %"class.pxrInternal_v0_24__pxrReserved__::GfVec3h", align 2
  %9 = alloca %"class.pxrInternal_v0_24__pxrReserved__::pxr_half::half", align 2
  %10 = alloca %"class.pxrInternal_v0_24__pxrReserved__::pxr_half::half", align 2
  %11 = alloca %"class.pxrInternal_v0_24__pxrReserved__::pxr_half::half", align 2
  %12 = alloca %"class.pxrInternal_v0_24__pxrReserved__::GfVec3h", align 2
  %13 = alloca %"class.pxrInternal_v0_24__pxrReserved__::pxr_half::half", align 2
  %14 = alloca %"class.pxrInternal_v0_24__pxrReserved__::pxr_half::half", align 2
  %15 = alloca %"class.pxrInternal_v0_24__pxrReserved__::pxr_half::half", align 2
  %16 = alloca %"class.pxrInternal_v0_24__pxrReserved__::GfVec3h", align 2
  %17 = alloca %"class.pxrInternal_v0_24__pxrReserved__::pxr_half::half", align 2
  %18 = alloca %"class.pxrInternal_v0_24__pxrReserved__::pxr_half::half", align 2
  %19 = alloca %"class.pxrInternal_v0_24__pxrReserved__::pxr_half::half", align 2
  store ptr %0, ptr %3, align 8
  store ptr %1, ptr %4, align 8
  %20 = load ptr, ptr %4, align 8
  %21 = call noundef nonnull align 8 dereferenceable(32) ptr @_ZNSt7__cxx1112basic_stringIcSt11char_traitsIcESaIcEEaSEPKc(ptr noundef nonnull align 8 dereferenceable(32) %20, ptr noundef @.str.71)
  call void @_ZN32pxrInternal_v0_24__pxrReserved__7VtArrayINS_7GfVec3hEEC1Em(ptr noundef nonnull align 8 dereferenceable(40) %5, i64 noundef 3)
  %22 = load ptr, ptr %3, align 8
  %23 = invoke noundef nonnull align 8 dereferenceable(40) ptr @_ZN32pxrInternal_v0_24__pxrReserved__7VtArrayINS_7GfVec3hEEaSEOS2_(ptr noundef nonnull align 8 dereferenceable(40) %22, ptr noundef nonnull align 8 dereferenceable(40) %5)
          to label %24 unwind label %49

24:                                               ; preds = %2
  call void @_ZN32pxrInternal_v0_24__pxrReserved__7VtArrayINS_7GfVec3hEED1Ev(ptr noundef nonnull align 8 dereferenceable(40) %5) #3
  call void @_ZN32pxrInternal_v0_24__pxrReserved__8pxr_half4halfC2Ef(ptr noundef nonnull align 2 dereferenceable(2) %9, float noundef 5.000000e-01)
  call void @_ZN32pxrInternal_v0_24__pxrReserved__8pxr_half4halfC2Ef(ptr noundef nonnull align 2 dereferenceable(2) %10, float noundef 1.500000e+00)
  call void @_ZN32pxrInternal_v0_24__pxrReserved__8pxr_half4halfC2Ef(ptr noundef nonnull align 2 dereferenceable(2) %11, float noundef 2.500000e+00)
  %25 = getelementptr inbounds nuw %"class.pxrInternal_v0_24__pxrReserved__::pxr_half::half", ptr %9, i32 0, i32 0
  %26 = load i16, ptr %25, align 2
  %27 = getelementptr inbounds nuw %"class.pxrInternal_v0_24__pxrReserved__::pxr_half::half", ptr %10, i32 0, i32 0
  %28 = load i16, ptr %27, align 2
  %29 = getelementptr inbounds nuw %"class.pxrInternal_v0_24__pxrReserved__::pxr_half::half", ptr %11, i32 0, i32 0
  %30 = load i16, ptr %29, align 2
  call void @_ZN32pxrInternal_v0_24__pxrReserved__7GfVec3hC2ENS_8pxr_half4halfES2_S2_(ptr noundef nonnull align 2 dereferenceable(6) %8, i16 %26, i16 %28, i16 %30)
  %31 = load ptr, ptr %3, align 8
  %32 = call noundef nonnull align 2 dereferenceable(6) ptr @_ZN32pxrInternal_v0_24__pxrReserved__7VtArrayINS_7GfVec3hEEixEm(ptr noundef nonnull align 8 dereferenceable(40) %31, i64 noundef 0)
  call void @llvm.memcpy.p0.p0.i64(ptr align 2 %32, ptr align 2 %8, i64 6, i1 false)
  call void @_ZN32pxrInternal_v0_24__pxrReserved__8pxr_half4halfC2Ef(ptr noundef nonnull align 2 dereferenceable(2) %13, float noundef 3.500000e+00)
  call void @_ZN32pxrInternal_v0_24__pxrReserved__8pxr_half4halfC2Ef(ptr noundef nonnull align 2 dereferenceable(2) %14, float noundef 4.500000e+00)
  call void @_ZN32pxrInternal_v0_24__pxrReserved__8pxr_half4halfC2Ef(ptr noundef nonnull align 2 dereferenceable(2) %15, float noundef 5.500000e+00)
  %33 = getelementptr inbounds nuw %"class.pxrInternal_v0_24__pxrReserved__::pxr_half::half", ptr %13, i32 0, i32 0
  %34 = load i16, ptr %33, align 2
  %35 = getelementptr inbounds nuw %"class.pxrInternal_v0_24__pxrReserved__::pxr_half::half", ptr %14, i32 0, i32 0
  %36 = load i16, ptr %35, align 2
  %37 = getelementptr inbounds nuw %"class.pxrInternal_v0_24__pxrReserved__::pxr_half::half", ptr %15, i32 0, i32 0
  %38 = load i16, ptr %37, align 2
  call void @_ZN32pxrInternal_v0_24__pxrReserved__7GfVec3hC2ENS_8pxr_half4halfES2_S2_(ptr noundef nonnull align 2 dereferenceable(6) %12, i16 %34, i16 %36, i16 %38)
  %39 = load ptr, ptr %3, align 8
  %40 = call noundef nonnull align 2 dereferenceable(6) ptr @_ZN32pxrInternal_v0_24__pxrReserved__7VtArrayINS_7GfVec3hEEixEm(ptr noundef nonnull align 8 dereferenceable(40) %39, i64 noundef 1)
  call void @llvm.memcpy.p0.p0.i64(ptr align 2 %40, ptr align 2 %12, i64 6, i1 false)
  call void @_ZN32pxrInternal_v0_24__pxrReserved__8pxr_half4halfC2Ef(ptr noundef nonnull align 2 dereferenceable(2) %17, float noundef 6.500000e+00)
  call void @_ZN32pxrInternal_v0_24__pxrReserved__8pxr_half4halfC2Ef(ptr noundef nonnull align 2 dereferenceable(2) %18, float noundef 7.500000e+00)
  call void @_ZN32pxrInternal_v0_24__pxrReserved__8pxr_half4halfC2Ef(ptr noundef nonnull align 2 dereferenceable(2) %19, float noundef 8.500000e+00)
  %41 = getelementptr inbounds nuw %"class.pxrInternal_v0_24__pxrReserved__::pxr_half::half", ptr %17, i32 0, i32 0
  %42 = load i16, ptr %41, align 2
  %43 = getelementptr inbounds nuw %"class.pxrInternal_v0_24__pxrReserved__::pxr_half::half", ptr %18, i32 0, i32 0
  %44 = load i16, ptr %43, align 2
  %45 = getelementptr inbounds nuw %"class.pxrInternal_v0_24__pxrReserved__::pxr_half::half", ptr %19, i32 0, i32 0
  %46 = load i16, ptr %45, align 2
  call void @_ZN32pxrInternal_v0_24__pxrReserved__7GfVec3hC2ENS_8pxr_half4halfES2_S2_(ptr noundef nonnull align 2 dereferenceable(6) %16, i16 %42, i16 %44, i16 %46)
  %47 = load ptr, ptr %3, align 8
  %48 = call noundef nonnull align 2 dereferenceable(6) ptr @_ZN32pxrInternal_v0_24__pxrReserved__7VtArrayINS_7GfVec3hEEixEm(ptr noundef nonnull align 8 dereferenceable(40) %47, i64 noundef 2)
  call void @llvm.memcpy.p0.p0.i64(ptr align 2 %48, ptr align 2 %16, i64 6, i1 false)
  ret void

49:                                               ; preds = %2
  %50 = landingpad { ptr, i32 }
          cleanup
  %51 = extractvalue { ptr, i32 } %50, 0
  store ptr %51, ptr %6, align 8
  %52 = extractvalue { ptr, i32 } %50, 1
  store i32 %52, ptr %7, align 4
  call void @_ZN32pxrInternal_v0_24__pxrReserved__7VtArrayINS_7GfVec3hEED1Ev(ptr noundef nonnull align 8 dereferenceable(40) %5) #3
  br label %53

53:                                               ; preds = %49
  %54 = load ptr, ptr %6, align 8
  %55 = load i32, ptr %7, align 4
  %56 = insertvalue { ptr, i32 } poison, ptr %54, 0
  %57 = insertvalue { ptr, i32 } %56, i32 %55, 1
  resume { ptr, i32 } %57
}