; Function Attrs: mustprogress uwtable
define dso_local void @_Z7GetInfoIN32pxrInternal_v0_24__pxrReserved__7GfVec3hEEvPNS0_7VtArrayIT_EEPNSt7__cxx1112basic_stringIcSt11char_traitsIcESaIcEEE(ptr noundef %0, ptr noundef nonnull %1) local_unnamed_addr #3 personality ptr @__gxx_personality_v0 {
  %3 = alloca %"class.pxrInternal_v0_24__pxrReserved__::VtArray.94", align 8
  %4 = tail call noundef nonnull align 8 dereferenceable(32) ptr @_ZNSt7__cxx1112basic_stringIcSt11char_traitsIcESaIcEEaSEPKc(ptr noundef nonnull align 8 dereferenceable(32) %1, ptr noundef nonnull @.str.71)
  call void @_ZN32pxrInternal_v0_24__pxrReserved__7VtArrayINS_7GfVec3hEEC1Em(ptr noundef nonnull align 8 dereferenceable(40) %3, i64 noundef 3)
  %5 = invoke noundef nonnull align 8 dereferenceable(40) ptr @_ZN32pxrInternal_v0_24__pxrReserved__7VtArrayINS_7GfVec3hEEaSEOS2_(ptr noundef nonnull align 8 dereferenceable(40) %0, ptr noundef nonnull align 8 dereferenceable(40) %3)
          to label %6 unwind label %45

6:                                                ; preds = %2
  call void @_ZN32pxrInternal_v0_24__pxrReserved__7VtArrayINS_7GfVec3hEED1Ev(ptr noundef nonnull align 8 dereferenceable(40) %3) #25
  %7 = load i16, ptr getelementptr inbounds (i8, ptr @_ZN32pxrInternal_v0_24__pxrReserved__8pxr_half4half5_eLutE, i64 252), align 4
  %.not.i = icmp eq i16 %7, 0
  br i1 %.not.i, label %8, label %_ZN32pxrInternal_v0_24__pxrReserved__8pxr_half4halfC2Ef.exit

8:                                                ; preds = %6
  %9 = call noundef signext i16 @_ZN32pxrInternal_v0_24__pxrReserved__8pxr_half4half7convertEi(i32 noundef 1056964608)
  br label %_ZN32pxrInternal_v0_24__pxrReserved__8pxr_half4halfC2Ef.exit

_ZN32pxrInternal_v0_24__pxrReserved__8pxr_half4halfC2Ef.exit: ; preds = %6, %8
  %.sink.i = phi i16 [ %9, %8 ], [ %7, %6 ]
  %10 = load i16, ptr getelementptr inbounds (i8, ptr @_ZN32pxrInternal_v0_24__pxrReserved__8pxr_half4half5_eLutE, i64 254), align 2
  %.not.i6 = icmp eq i16 %10, 0
  br i1 %.not.i6, label %13, label %11

11:                                               ; preds = %_ZN32pxrInternal_v0_24__pxrReserved__8pxr_half4halfC2Ef.exit
  %12 = add i16 %10, 512
  br label %_ZN32pxrInternal_v0_24__pxrReserved__8pxr_half4halfC2Ef.exit8

13:                                               ; preds = %_ZN32pxrInternal_v0_24__pxrReserved__8pxr_half4halfC2Ef.exit
  %14 = call noundef signext i16 @_ZN32pxrInternal_v0_24__pxrReserved__8pxr_half4half7convertEi(i32 noundef 1069547520)
  br label %_ZN32pxrInternal_v0_24__pxrReserved__8pxr_half4halfC2Ef.exit8

_ZN32pxrInternal_v0_24__pxrReserved__8pxr_half4halfC2Ef.exit8: ; preds = %11, %13
  %.sink.i7 = phi i16 [ %12, %11 ], [ %14, %13 ]
  %15 = load i16, ptr getelementptr inbounds (i8, ptr @_ZN32pxrInternal_v0_24__pxrReserved__8pxr_half4half5_eLutE, i64 256), align 16
  %.not.i9 = icmp eq i16 %15, 0
  br i1 %.not.i9, label %18, label %16

16:                                               ; preds = %_ZN32pxrInternal_v0_24__pxrReserved__8pxr_half4halfC2Ef.exit8
  %17 = add i16 %15, 256
  br label %_ZN32pxrInternal_v0_24__pxrReserved__8pxr_half4halfC2Ef.exit11

18:                                               ; preds = %_ZN32pxrInternal_v0_24__pxrReserved__8pxr_half4halfC2Ef.exit8
  %19 = call noundef signext i16 @_ZN32pxrInternal_v0_24__pxrReserved__8pxr_half4half7convertEi(i32 noundef 1075838976)
  br label %_ZN32pxrInternal_v0_24__pxrReserved__8pxr_half4halfC2Ef.exit11

_ZN32pxrInternal_v0_24__pxrReserved__8pxr_half4halfC2Ef.exit11: ; preds = %16, %18
  %.sink.i10 = phi i16 [ %17, %16 ], [ %19, %18 ]
  %20 = call noundef nonnull align 2 dereferenceable(6) ptr @_ZN32pxrInternal_v0_24__pxrReserved__7VtArrayINS_7GfVec3hEEixEm(ptr noundef nonnull align 8 dereferenceable(40) %0, i64 noundef 0)
  store i16 %.sink.i, ptr %20, align 2
  %.sroa.243.0..sroa_idx = getelementptr inbounds i8, ptr %20, i64 2
  store i16 %.sink.i7, ptr %.sroa.243.0..sroa_idx, align 2
  %.sroa.344.0..sroa_idx = getelementptr inbounds i8, ptr %20, i64 4
  store i16 %.sink.i10, ptr %.sroa.344.0..sroa_idx, align 2
  br i1 %.not.i9, label %23, label %21

21:                                               ; preds = %_ZN32pxrInternal_v0_24__pxrReserved__8pxr_half4halfC2Ef.exit11
  %22 = add i16 %15, 768
  br label %_ZN32pxrInternal_v0_24__pxrReserved__8pxr_half4halfC2Ef.exit14

23:                                               ; preds = %_ZN32pxrInternal_v0_24__pxrReserved__8pxr_half4halfC2Ef.exit11
  %24 = call noundef signext i16 @_ZN32pxrInternal_v0_24__pxrReserved__8pxr_half4half7convertEi(i32 noundef 1080033280)
  br label %_ZN32pxrInternal_v0_24__pxrReserved__8pxr_half4halfC2Ef.exit14

_ZN32pxrInternal_v0_24__pxrReserved__8pxr_half4halfC2Ef.exit14: ; preds = %21, %23
  %.sink.i13 = phi i16 [ %22, %21 ], [ %24, %23 ]
  %25 = load i16, ptr getelementptr inbounds (i8, ptr @_ZN32pxrInternal_v0_24__pxrReserved__8pxr_half4half5_eLutE, i64 258), align 2
  %.not.i15 = icmp eq i16 %25, 0
  br i1 %.not.i15, label %29, label %26

26:                                               ; preds = %_ZN32pxrInternal_v0_24__pxrReserved__8pxr_half4halfC2Ef.exit14
  %27 = add i16 %25, 128
  %28 = add i16 %25, 384
  br label %_ZN32pxrInternal_v0_24__pxrReserved__8pxr_half4halfC2Ef.exit20

29:                                               ; preds = %_ZN32pxrInternal_v0_24__pxrReserved__8pxr_half4halfC2Ef.exit14
  %30 = call noundef signext i16 @_ZN32pxrInternal_v0_24__pxrReserved__8pxr_half4half7convertEi(i32 noundef 1083179008)
  %31 = call noundef signext i16 @_ZN32pxrInternal_v0_24__pxrReserved__8pxr_half4half7convertEi(i32 noundef 1085276160)
  br label %_ZN32pxrInternal_v0_24__pxrReserved__8pxr_half4halfC2Ef.exit20

_ZN32pxrInternal_v0_24__pxrReserved__8pxr_half4halfC2Ef.exit20: ; preds = %26, %29
  %.sink.i1646 = phi i16 [ %27, %26 ], [ %30, %29 ]
  %.sink.i19 = phi i16 [ %28, %26 ], [ %31, %29 ]
  %32 = call noundef nonnull align 2 dereferenceable(6) ptr @_ZN32pxrInternal_v0_24__pxrReserved__7VtArrayINS_7GfVec3hEEixEm(ptr noundef nonnull align 8 dereferenceable(40) %0, i64 noundef 1)
  store i16 %.sink.i13, ptr %32, align 2
  %.sroa.237.0..sroa_idx = getelementptr inbounds i8, ptr %32, i64 2
  store i16 %.sink.i1646, ptr %.sroa.237.0..sroa_idx, align 2
  %.sroa.338.0..sroa_idx = getelementptr inbounds i8, ptr %32, i64 4
  store i16 %.sink.i19, ptr %.sroa.338.0..sroa_idx, align 2
  br i1 %.not.i15, label %36, label %33

33:                                               ; preds = %_ZN32pxrInternal_v0_24__pxrReserved__8pxr_half4halfC2Ef.exit20
  %34 = add i16 %25, 640
  %35 = add i16 %25, 896
  br label %_ZN32pxrInternal_v0_24__pxrReserved__8pxr_half4halfC2Ef.exit26

36:                                               ; preds = %_ZN32pxrInternal_v0_24__pxrReserved__8pxr_half4halfC2Ef.exit20
  %37 = call noundef signext i16 @_ZN32pxrInternal_v0_24__pxrReserved__8pxr_half4half7convertEi(i32 noundef 1087373312)
  %38 = call noundef signext i16 @_ZN32pxrInternal_v0_24__pxrReserved__8pxr_half4half7convertEi(i32 noundef 1089470464)
  br label %_ZN32pxrInternal_v0_24__pxrReserved__8pxr_half4halfC2Ef.exit26

_ZN32pxrInternal_v0_24__pxrReserved__8pxr_half4halfC2Ef.exit26: ; preds = %33, %36
  %.sink.i2249 = phi i16 [ %34, %33 ], [ %37, %36 ]
  %.sink.i25 = phi i16 [ %35, %33 ], [ %38, %36 ]
  %39 = load i16, ptr getelementptr inbounds (i8, ptr @_ZN32pxrInternal_v0_24__pxrReserved__8pxr_half4half5_eLutE, i64 260), align 4
  %.not.i27 = icmp eq i16 %39, 0
  br i1 %.not.i27, label %42, label %40

40:                                               ; preds = %_ZN32pxrInternal_v0_24__pxrReserved__8pxr_half4halfC2Ef.exit26
  %41 = add i16 %39, 64
  br label %_ZN32pxrInternal_v0_24__pxrReserved__8pxr_half4halfC2Ef.exit29

42:                                               ; preds = %_ZN32pxrInternal_v0_24__pxrReserved__8pxr_half4halfC2Ef.exit26
  %43 = call noundef signext i16 @_ZN32pxrInternal_v0_24__pxrReserved__8pxr_half4half7convertEi(i32 noundef 1091043328)
  br label %_ZN32pxrInternal_v0_24__pxrReserved__8pxr_half4halfC2Ef.exit29

_ZN32pxrInternal_v0_24__pxrReserved__8pxr_half4halfC2Ef.exit29: ; preds = %40, %42
  %.sink.i28 = phi i16 [ %41, %40 ], [ %43, %42 ]
  %44 = call noundef nonnull align 2 dereferenceable(6) ptr @_ZN32pxrInternal_v0_24__pxrReserved__7VtArrayINS_7GfVec3hEEixEm(ptr noundef nonnull align 8 dereferenceable(40) %0, i64 noundef 2)
  store i16 %.sink.i2249, ptr %44, align 2
  %.sroa.2.0..sroa_idx = getelementptr inbounds i8, ptr %44, i64 2
  store i16 %.sink.i25, ptr %.sroa.2.0..sroa_idx, align 2
  %.sroa.3.0..sroa_idx = getelementptr inbounds i8, ptr %44, i64 4
  store i16 %.sink.i28, ptr %.sroa.3.0..sroa_idx, align 2
  ret void

45:                                               ; preds = %2
  %46 = landingpad { ptr, i32 }
          cleanup
  call void @_ZN32pxrInternal_v0_24__pxrReserved__7VtArrayINS_7GfVec3hEED1Ev(ptr noundef nonnull align 8 dereferenceable(40) %3) #25
  resume { ptr, i32 } %46
}